; Function Attrs: mustprogress nofree norecurse nounwind willreturn memory(argmem: readwrite) uwtable
define internal noundef i32 @up_ref_loader(ptr noundef captures(none) %0) #0 {
  %2 = getelementptr inbounds nuw i8, ptr %0, i64 96
  %3 = load ptr, ptr %2, align 8, !tbaa !3
  %.not.i = icmp eq ptr %3, null
  br i1 %.not.i, label %OSSL_STORE_LOADER_up_ref.exit, label %4

4:                                                ; preds = %1
  %5 = getelementptr inbounds nuw i8, ptr %0, i64 128
  %6 = atomicrmw add ptr %5, i32 1 monotonic, align 4
  br label %OSSL_STORE_LOADER_up_ref.exit

OSSL_STORE_LOADER_up_ref.exit:                    ; preds = %1, %4
  ret i32 1
}